; Function Attrs: nounwind uwtable
define hidden noundef i32 @ec_GFp_simple_group_init(ptr noundef %0) local_unnamed_addr #0 {
  %2 = getelementptr inbounds nuw i8, ptr %0, i64 80
  tail call void @BN_init(ptr noundef nonnull %2) #5
  %3 = getelementptr inbounds nuw i8, ptr %0, i64 104
  tail call void @BN_init(ptr noundef nonnull %3) #5
  %4 = getelementptr inbounds nuw i8, ptr %0, i64 128
  tail call void @BN_init(ptr noundef nonnull %4) #5
  %5 = getelementptr inbounds nuw i8, ptr %0, i64 168
  tail call void @BN_init(ptr noundef nonnull %5) #5
  %6 = getelementptr inbounds nuw i8, ptr %0, i64 152
  store i32 0, ptr %6, align 8, !tbaa !6
  ret i32 1
}